target datalayout = "e-m:e-p270:32:32-p271:32:32-p272:64:64-i64:64-i128:128-f80:128-n8:16:32:64-S128"
target triple = "x86_64-pc-linux-gnu"

%struct.hb_font_funcs_t = type { %struct.hb_object_header_t, ptr, ptr, %"union.hb_font_funcs_t::get_t" }
%struct.hb_object_header_t = type { %struct.hb_reference_count_t, %struct.hb_atomic_int_t, %struct.hb_atomic_ptr_t }
%struct.hb_reference_count_t = type { %struct.hb_atomic_int_t }
%struct.hb_atomic_int_t = type { i32 }
%struct.hb_atomic_ptr_t = type { ptr }
%"union.hb_font_funcs_t::get_t" = type { %"struct.hb_font_funcs_t::get_t::get_funcs_t" }
%"struct.hb_font_funcs_t::get_t::get_funcs_t" = type { ptr, ptr, ptr, ptr, ptr, ptr, ptr, ptr, ptr, ptr, ptr, ptr, ptr, ptr, ptr, ptr, ptr, ptr, ptr }
%struct.hb_atomic_ptr_t.1 = type { ptr }
%struct.hb_atomic_ptr_t.5 = type { ptr }
%struct.hb_font_t = type { %struct.hb_object_header_t, i32, i32, ptr, ptr, i32, i32, float, float, i8, i32, i32, float, float, float, float, i64, i64, i32, i32, float, i32, i32, ptr, ptr, ptr, ptr, ptr, %struct.hb_shaper_object_dataset_t }
%struct.hb_shaper_object_dataset_t = type { ptr, %struct.hb_shaper_lazy_loader_t, %struct.hb_shaper_lazy_loader_t.2 }
%struct.hb_shaper_lazy_loader_t = type { %struct.hb_lazy_loader_t }
%struct.hb_lazy_loader_t = type { %struct.hb_atomic_ptr_t.1 }
%struct.hb_shaper_lazy_loader_t.2 = type { %struct.hb_lazy_loader_t.3 }
%struct.hb_lazy_loader_t.3 = type { %struct.hb_atomic_ptr_t.5 }
%struct.anon.0 = type { ptr, ptr, ptr, ptr, ptr, ptr, ptr, ptr, ptr, ptr, ptr, ptr, ptr, ptr, ptr, ptr, ptr, ptr, ptr }
%struct.hb_font_extents_t = type { i32, i32, i32, i32, i32, i32, i32, i32, i32, i32, i32, i32 }

; Function Attrs: mustprogress nounwind uwtable
define internal noundef ptr @_ZL9hb_memsetPvij(ptr noundef %0, i32 noundef %1, i32 noundef %2) #1 {
  %4 = alloca ptr, align 8
  %5 = alloca ptr, align 8
  %6 = alloca i32, align 4
  %7 = alloca i32, align 4
  store ptr %0, ptr %5, align 8
  store i32 %1, ptr %6, align 4
  store i32 %2, ptr %7, align 4
  %8 = load i32, ptr %7, align 4
  %9 = icmp ne i32 %8, 0
  br i1 %9, label %12, label %10

10:                                               ; preds = %3
  %11 = load ptr, ptr %5, align 8
  store ptr %11, ptr %4, align 8
  br label %18

12:                                               ; preds = %3
  %13 = load ptr, ptr %5, align 8
  %14 = load i32, ptr %6, align 4
  %15 = trunc i32 %14 to i8
  %16 = load i32, ptr %7, align 4
  %17 = zext i32 %16 to i64
  call void @llvm.memset.p0.i64(ptr align 1 %13, i8 %15, i64 %17, i1 false)
  store ptr %13, ptr %4, align 8
  br label %18

18:                                               ; preds = %12, %10
  %19 = load ptr, ptr %4, align 8
  ret ptr %19
}

; Function Attrs: mustprogress uwtable
define linkonce_odr hidden noundef i32 @_ZN9hb_font_t18get_font_v_extentsEP17hb_font_extents_t(ptr noundef nonnull align 8 dereferenceable(192) %0, ptr noundef %1) #0 comdat align 2 {
  %3 = alloca ptr, align 8
  %4 = alloca ptr, align 8
  store ptr %0, ptr %3, align 8
  store ptr %1, ptr %4, align 8
  %5 = load ptr, ptr %3, align 8
  %6 = load ptr, ptr %4, align 8
  %7 = call noundef ptr @_ZL9hb_memsetPvij(ptr noundef %6, i32 noundef 0, i32 noundef 48)
  %8 = getelementptr inbounds %struct.hb_font_t, ptr %5, i32 0, i32 25
  %9 = load ptr, ptr %8, align 8
  %10 = getelementptr inbounds %struct.hb_font_funcs_t, ptr %9, i32 0, i32 3
  %11 = getelementptr inbounds %"struct.hb_font_funcs_t::get_t::get_funcs_t", ptr %10, i32 0, i32 1
  %12 = load ptr, ptr %11, align 8
  %13 = getelementptr inbounds %struct.hb_font_t, ptr %5, i32 0, i32 26
  %14 = load ptr, ptr %13, align 8
  %15 = load ptr, ptr %4, align 8
  %16 = getelementptr inbounds %struct.hb_font_t, ptr %5, i32 0, i32 25
  %17 = load ptr, ptr %16, align 8
  %18 = getelementptr inbounds %struct.hb_font_funcs_t, ptr %17, i32 0, i32 1
  %19 = load ptr, ptr %18, align 8
  %20 = icmp ne ptr %19, null
  br i1 %20, label %22, label %21

21:                                               ; preds = %2
  br label %29

22:                                               ; preds = %2
  %23 = getelementptr inbounds %struct.hb_font_t, ptr %5, i32 0, i32 25
  %24 = load ptr, ptr %23, align 8
  %25 = getelementptr inbounds %struct.hb_font_funcs_t, ptr %24, i32 0, i32 1
  %26 = load ptr, ptr %25, align 8
  %27 = getelementptr inbounds %struct.anon.0, ptr %26, i32 0, i32 1
  %28 = load ptr, ptr %27, align 8
  br label %29

29:                                               ; preds = %22, %21
  %30 = phi ptr [ null, %21 ], [ %28, %22 ]
  %31 = call noundef i32 %12(ptr noundef %5, ptr noundef %14, ptr noundef %15, ptr noundef %30)
  ret i32 %31
}

; Function Attrs: mustprogress uwtable
define linkonce_odr hidden noundef i32 @_ZN9hb_font_t18get_font_h_extentsEP17hb_font_extents_t(ptr noundef nonnull align 8 dereferenceable(192) %0, ptr noundef %1) #0 comdat align 2 {
  %3 = alloca ptr, align 8
  %4 = alloca ptr, align 8
  store ptr %0, ptr %3, align 8
  store ptr %1, ptr %4, align 8
  %5 = load ptr, ptr %3, align 8
  %6 = load ptr, ptr %4, align 8
  %7 = call noundef ptr @_ZL9hb_memsetPvij(ptr noundef %6, i32 noundef 0, i32 noundef 48)
  %8 = getelementptr inbounds %struct.hb_font_t, ptr %5, i32 0, i32 25
  %9 = load ptr, ptr %8, align 8
  %10 = getelementptr inbounds %struct.hb_font_funcs_t, ptr %9, i32 0, i32 3
  %11 = getelementptr inbounds %"struct.hb_font_funcs_t::get_t::get_funcs_t", ptr %10, i32 0, i32 0
  %12 = load ptr, ptr %11, align 8
  %13 = getelementptr inbounds %struct.hb_font_t, ptr %5, i32 0, i32 26
  %14 = load ptr, ptr %13, align 8
  %15 = load ptr, ptr %4, align 8
  %16 = getelementptr inbounds %struct.hb_font_t, ptr %5, i32 0, i32 25
  %17 = load ptr, ptr %16, align 8
  %18 = getelementptr inbounds %struct.hb_font_funcs_t, ptr %17, i32 0, i32 1
  %19 = load ptr, ptr %18, align 8
  %20 = icmp ne ptr %19, null
  br i1 %20, label %22, label %21

21:                                               ; preds = %2
  br label %29

22:                                               ; preds = %2
  %23 = getelementptr inbounds %struct.hb_font_t, ptr %5, i32 0, i32 25
  %24 = load ptr, ptr %23, align 8
  %25 = getelementptr inbounds %struct.hb_font_funcs_t, ptr %24, i32 0, i32 1
  %26 = load ptr, ptr %25, align 8
  %27 = getelementptr inbounds %struct.anon.0, ptr %26, i32 0, i32 0
  %28 = load ptr, ptr %27, align 8
  br label %29

29:                                               ; preds = %22, %21
  %30 = phi ptr [ null, %21 ], [ %28, %22 ]
  %31 = call noundef i32 %12(ptr noundef %5, ptr noundef %14, ptr noundef %15, ptr noundef %30)
  ret i32 %31
}

; Function Attrs: mustprogress uwtable
define linkonce_odr hidden void @_ZN9hb_font_t27get_v_extents_with_fallbackEP17hb_font_extents_t(ptr noundef nonnull align 8 dereferenceable(192) %0, ptr noundef %1) #0 comdat align 2 {
  %3 = alloca ptr, align 8
  %4 = alloca ptr, align 8
  store ptr %0, ptr %3, align 8
  store ptr %1, ptr %4, align 8
  %5 = load ptr, ptr %3, align 8
  %6 = load ptr, ptr %4, align 8
  %7 = call noundef i32 @_ZN9hb_font_t18get_font_v_extentsEP17hb_font_extents_t(ptr noundef nonnull align 8 dereferenceable(192) %5, ptr noundef %6)
  %8 = icmp ne i32 %7, 0
  br i1 %8, label %25, label %9

9:                                                ; preds = %2
  %10 = getelementptr inbounds %struct.hb_font_t, ptr %5, i32 0, i32 5
  %11 = load i32, ptr %10, align 8
  %12 = sdiv i32 %11, 2
  %13 = load ptr, ptr %4, align 8
  %14 = getelementptr inbounds %struct.hb_font_extents_t, ptr %13, i32 0, i32 0
  store i32 %12, ptr %14, align 4
  %15 = load ptr, ptr %4, align 8
  %16 = getelementptr inbounds %struct.hb_font_extents_t, ptr %15, i32 0, i32 0
  %17 = load i32, ptr %16, align 4
  %18 = getelementptr inbounds %struct.hb_font_t, ptr %5, i32 0, i32 5
  %19 = load i32, ptr %18, align 8
  %20 = sub nsw i32 %17, %19
  %21 = load ptr, ptr %4, align 8
  %22 = getelementptr inbounds %struct.hb_font_extents_t, ptr %21, i32 0, i32 1
  store i32 %20, ptr %22, align 4
  %23 = load ptr, ptr %4, align 8
  %24 = getelementptr inbounds %struct.hb_font_extents_t, ptr %23, i32 0, i32 2
  store i32 0, ptr %24, align 4
  br label %25

25:                                               ; preds = %9, %2
  ret void
}

; Function Attrs: mustprogress uwtable
define linkonce_odr hidden void @_ZN9hb_font_t27get_h_extents_with_fallbackEP17hb_font_extents_t(ptr noundef nonnull align 8 dereferenceable(192) %0, ptr noundef %1) #0 comdat align 2 {
  %3 = alloca ptr, align 8
  %4 = alloca ptr, align 8
  store ptr %0, ptr %3, align 8
  store ptr %1, ptr %4, align 8
  %5 = load ptr, ptr %3, align 8
  %6 = load ptr, ptr %4, align 8
  %7 = call noundef i32 @_ZN9hb_font_t18get_font_h_extentsEP17hb_font_extents_t(ptr noundef nonnull align 8 dereferenceable(192) %5, ptr noundef %6)
  %8 = icmp ne i32 %7, 0
  br i1 %8, label %27, label %9

9:                                                ; preds = %2
  %10 = getelementptr inbounds %struct.hb_font_t, ptr %5, i32 0, i32 6
  %11 = load i32, ptr %10, align 4
  %12 = sitofp i32 %11 to double
  %13 = fmul double %12, 8.000000e-01
  %14 = fptosi double %13 to i32
  %15 = load ptr, ptr %4, align 8
  %16 = getelementptr inbounds %struct.hb_font_extents_t, ptr %15, i32 0, i32 0
  store i32 %14, ptr %16, align 4
  %17 = load ptr, ptr %4, align 8
  %18 = getelementptr inbounds %struct.hb_font_extents_t, ptr %17, i32 0, i32 0
  %19 = load i32, ptr %18, align 4
  %20 = getelementptr inbounds %struct.hb_font_t, ptr %5, i32 0, i32 6
  %21 = load i32, ptr %20, align 4
  %22 = sub nsw i32 %19, %21
  %23 = load ptr, ptr %4, align 8
  %24 = getelementptr inbounds %struct.hb_font_extents_t, ptr %23, i32 0, i32 1
  store i32 %22, ptr %24, align 4
  %25 = load ptr, ptr %4, align 8
  %26 = getelementptr inbounds %struct.hb_font_extents_t, ptr %25, i32 0, i32 2
  store i32 0, ptr %26, align 4
  br label %27

27:                                               ; preds = %9, %2
  ret void
}

; Function Attrs: mustprogress uwtable
define linkonce_odr hidden void @_ZN9hb_font_t25get_extents_for_directionE14hb_direction_tP17hb_font_extents_t(ptr noundef nonnull align 8 dereferenceable(192) %0, i32 noundef %1, ptr noundef %2) #0 comdat align 2 {
  %4 = alloca ptr, align 8
  %5 = alloca i32, align 4
  %6 = alloca ptr, align 8
  store ptr %0, ptr %4, align 8
  store i32 %1, ptr %5, align 4
  store ptr %2, ptr %6, align 8
  %7 = load ptr, ptr %4, align 8
  %8 = load i32, ptr %5, align 4
  %9 = and i32 %8, -2
  %10 = icmp eq i32 %9, 4
  br i1 %10, label %11, label %13

11:                                               ; preds = %3
  %12 = load ptr, ptr %6, align 8
  call void @_ZN9hb_font_t27get_h_extents_with_fallbackEP17hb_font_extents_t(ptr noundef nonnull align 8 dereferenceable(192) %7, ptr noundef %12)
  br label %15

13:                                               ; preds = %3
  %14 = load ptr, ptr %6, align 8
  call void @_ZN9hb_font_t27get_v_extents_with_fallbackEP17hb_font_extents_t(ptr noundef nonnull align 8 dereferenceable(192) %7, ptr noundef %14)
  br label %15

15:                                               ; preds = %13, %11
  ret void
}

; Function Attrs: mustprogress uwtable
define hidden void @hb_font_get_extents_for_direction(ptr noundef %0, i32 noundef %1, ptr noundef %2) #0 {
  %4 = alloca ptr, align 8
  %5 = alloca i32, align 4
  %6 = alloca ptr, align 8
  store ptr %0, ptr %4, align 8
  store i32 %1, ptr %5, align 4
  store ptr %2, ptr %6, align 8
  %7 = load ptr, ptr %4, align 8
  %8 = load i32, ptr %5, align 4
  %9 = load ptr, ptr %6, align 8
  call void @_ZN9hb_font_t25get_extents_for_directionE14hb_direction_tP17hb_font_extents_t(ptr noundef nonnull align 8 dereferenceable(192) %7, i32 noundef %8, ptr noundef %9)
  ret void
}