; Function Attrs: mustprogress uwtable
define hidden void @hb_font_get_extents_for_direction(ptr noundef %0, i32 noundef %1, ptr noundef %2) local_unnamed_addr #1 {
  %4 = and i32 %1, -2
  %5 = icmp eq i32 %4, 4
  tail call void @llvm.memset.p0.i64(ptr noundef nonnull align 1 dereferenceable(48) %2, i8 0, i64 48, i1 false)
  %6 = getelementptr inbounds i8, ptr %0, i64 144
  %7 = load ptr, ptr %6, align 8
  %8 = getelementptr inbounds i8, ptr %0, i64 152
  %9 = load ptr, ptr %8, align 8
  %10 = getelementptr inbounds i8, ptr %7, i64 16
  %11 = load ptr, ptr %10, align 8
  %.not.i.i.i = icmp eq ptr %11, null
  br i1 %5, label %12, label %27

12:                                               ; preds = %3
  %13 = getelementptr inbounds i8, ptr %7, i64 32
  %14 = load ptr, ptr %13, align 8
  br i1 %.not.i.i.i, label %_ZN9hb_font_t18get_font_h_extentsEP17hb_font_extents_t.exit.i.i, label %15

15:                                               ; preds = %12
  %16 = load ptr, ptr %11, align 8
  br label %_ZN9hb_font_t18get_font_h_extentsEP17hb_font_extents_t.exit.i.i

_ZN9hb_font_t18get_font_h_extentsEP17hb_font_extents_t.exit.i.i: ; preds = %15, %12
  %17 = phi ptr [ %16, %15 ], [ null, %12 ]
  %18 = tail call noundef i32 %14(ptr noundef nonnull %0, ptr noundef %9, ptr noundef nonnull %2, ptr noundef %17)
  %.not.i.i = icmp eq i32 %18, 0
  br i1 %.not.i.i, label %19, label %_ZN9hb_font_t25get_extents_for_directionE14hb_direction_tP17hb_font_extents_t.exit

19:                                               ; preds = %_ZN9hb_font_t18get_font_h_extentsEP17hb_font_extents_t.exit.i.i
  %20 = getelementptr inbounds i8, ptr %0, i64 44
  %21 = load i32, ptr %20, align 4
  %22 = sitofp i32 %21 to double
  %23 = fmul double %22, 8.000000e-01
  %24 = fptosi double %23 to i32
  store i32 %24, ptr %2, align 4
  %25 = load i32, ptr %20, align 4
  %26 = sub nsw i32 %24, %25
  br label %_ZN9hb_font_t27get_h_extents_with_fallbackEP17hb_font_extents_t.exit.sink.split.i

27:                                               ; preds = %3
  %28 = getelementptr inbounds i8, ptr %7, i64 40
  %29 = load ptr, ptr %28, align 8
  br i1 %.not.i.i.i, label %_ZN9hb_font_t18get_font_v_extentsEP17hb_font_extents_t.exit.i.i, label %30

30:                                               ; preds = %27
  %31 = getelementptr inbounds i8, ptr %11, i64 8
  %32 = load ptr, ptr %31, align 8
  br label %_ZN9hb_font_t18get_font_v_extentsEP17hb_font_extents_t.exit.i.i

_ZN9hb_font_t18get_font_v_extentsEP17hb_font_extents_t.exit.i.i: ; preds = %30, %27
  %33 = phi ptr [ %32, %30 ], [ null, %27 ]
  %34 = tail call noundef i32 %29(ptr noundef nonnull %0, ptr noundef %9, ptr noundef nonnull %2, ptr noundef %33)
  %.not.i4.i = icmp eq i32 %34, 0
  br i1 %.not.i4.i, label %35, label %_ZN9hb_font_t25get_extents_for_directionE14hb_direction_tP17hb_font_extents_t.exit

35:                                               ; preds = %_ZN9hb_font_t18get_font_v_extentsEP17hb_font_extents_t.exit.i.i
  %36 = getelementptr inbounds i8, ptr %0, i64 40
  %37 = load i32, ptr %36, align 8
  %38 = sdiv i32 %37, 2
  store i32 %38, ptr %2, align 4
  %39 = load i32, ptr %36, align 8
  %40 = sub nsw i32 %38, %39
  br label %_ZN9hb_font_t27get_h_extents_with_fallbackEP17hb_font_extents_t.exit.sink.split.i

_ZN9hb_font_t27get_h_extents_with_fallbackEP17hb_font_extents_t.exit.sink.split.i: ; preds = %35, %19
  %.sink.i = phi i32 [ %40, %35 ], [ %26, %19 ]
  %41 = getelementptr inbounds i8, ptr %2, i64 4
  store i32 %.sink.i, ptr %41, align 4
  %42 = getelementptr inbounds i8, ptr %2, i64 8
  store i32 0, ptr %42, align 4
  br label %_ZN9hb_font_t25get_extents_for_directionE14hb_direction_tP17hb_font_extents_t.exit

_ZN9hb_font_t25get_extents_for_directionE14hb_direction_tP17hb_font_extents_t.exit: ; preds = %_ZN9hb_font_t18get_font_h_extentsEP17hb_font_extents_t.exit.i.i, %_ZN9hb_font_t18get_font_v_extentsEP17hb_font_extents_t.exit.i.i, %_ZN9hb_font_t27get_h_extents_with_fallbackEP17hb_font_extents_t.exit.sink.split.i
  ret void
}